target datalayout = "e-m:e-p270:32:32-p271:32:32-p272:64:64-i64:64-i128:128-f80:128-n8:16:32:64-S128"
target triple = "x86_64-pc-linux-gnu"

%struct.IDAMemRec = type { ptr, double, ptr, ptr, i32, double, double, ptr, i32, i32, ptr, ptr, i32, i32, i32, ptr, ptr, i32, i32, double, double, ptr, i32, i32, i32, i32, ptr, ptr, i32, ptr, ptr, ptr, i32, double, i32, i32, double, ptr, ptr, ptr, i32, ptr, ptr, i32, i32, i32, double, ptr, ptr, ptr, [6 x ptr], [6 x double], [6 x double], [6 x double], [6 x double], [6 x double], ptr, ptr, ptr, ptr, ptr, ptr, ptr, ptr, ptr, ptr, ptr, ptr, ptr, ptr, ptr, ptr, ptr, [6 x ptr], ptr, ptr, ptr, ptr, [6 x ptr], ptr, ptr, ptr, ptr, ptr, ptr, ptr, ptr, ptr, ptr, ptr, ptr, ptr, ptr, ptr, ptr, [6 x ptr], ptr, ptr, ptr, ptr, ptr, double, ptr, ptr, i32, i32, i32, i32, i32, i32, i32, i32, double, double, double, i32, double, i32, i32, i32, i32, i32, double, double, double, double, double, double, double, double, double, double, double, double, double, double, double, double, double, i32, i32, i32, i32, i64, double, double, double, double, double, double, double, double, double, i64, i64, i64, i64, i64, i64, i64, i64, i64, i64, i64, i64, i64, i64, i64, i64, i64, i64, i64, i64, i64, i64, i64, i64, i64, i64, double, i32, i32, i32, i32, i32, i32, i32, i32, i32, i32, i32, i32, i32, ptr, i32, ptr, i32, ptr, i32, ptr, ptr, ptr, ptr, ptr, ptr, i32, i32, ptr, ptr, ptr, ptr, ptr, ptr, ptr, double, i32, i32, ptr, i32, ptr, ptr, double, double, double, ptr, ptr, ptr, double, double, i32, i32, i64, ptr, i32, ptr, [5 x double], ptr, ptr, i32, ptr, i32 }

@.str = private unnamed_addr constant [114 x i8] c"generated/home/dtcxzyw/WorkSpace/Projects/compilers/llvm-opt-benchmark/bench/sundials/sundials/src/idas/idas_io.c\00", align 1
@.str.1 = private unnamed_addr constant [24 x i8] c"ida_mem = NULL illegal.\00", align 1
@__func__.IDASetSensDQMethod = private unnamed_addr constant [19 x i8] c"IDASetSensDQMethod\00", align 1
@.str.19 = private unnamed_addr constant [74 x i8] c"Illegal value for DQtype. Legal values are: IDA_CENTERED and IDA_FORWARD.\00", align 1
@.str.20 = private unnamed_addr constant [22 x i8] c"DQrhomax < 0 illegal.\00", align 1

; Function Attrs: nounwind uwtable
define i32 @IDASetSensDQMethod(ptr noundef %0, i32 noundef %1, double noundef %2) #0 {
  %4 = alloca i32, align 4
  %5 = alloca ptr, align 8
  %6 = alloca i32, align 4
  %7 = alloca double, align 8
  %8 = alloca ptr, align 8
  store ptr %0, ptr %5, align 8
  store i32 %1, ptr %6, align 4
  store double %2, ptr %7, align 8
  %9 = load ptr, ptr %5, align 8
  %10 = icmp eq ptr %9, null
  br i1 %10, label %11, label %12

11:                                               ; preds = %3
  call void (ptr, i32, i32, ptr, ptr, ptr, ...) @IDAProcessError(ptr noundef null, i32 noundef -20, i32 noundef 921, ptr noundef @__func__.IDASetSensDQMethod, ptr noundef @.str, ptr noundef @.str.1)
  store i32 -20, ptr %4, align 4
  br label %33

12:                                               ; preds = %3
  %13 = load ptr, ptr %5, align 8
  store ptr %13, ptr %8, align 8
  %14 = load i32, ptr %6, align 4
  %15 = icmp ne i32 %14, 1
  br i1 %15, label %16, label %21

16:                                               ; preds = %12
  %17 = load i32, ptr %6, align 4
  %18 = icmp ne i32 %17, 2
  br i1 %18, label %19, label %21

19:                                               ; preds = %16
  %20 = load ptr, ptr %8, align 8
  call void (ptr, i32, i32, ptr, ptr, ptr, ...) @IDAProcessError(ptr noundef %20, i32 noundef -22, i32 noundef 929, ptr noundef @__func__.IDASetSensDQMethod, ptr noundef @.str, ptr noundef @.str.19)
  store i32 -22, ptr %4, align 4
  br label %33

21:                                               ; preds = %16, %12
  %22 = load double, ptr %7, align 8
  %23 = fcmp olt double %22, 0.000000e+00
  br i1 %23, label %24, label %26

24:                                               ; preds = %21
  %25 = load ptr, ptr %8, align 8
  call void (ptr, i32, i32, ptr, ptr, ptr, ...) @IDAProcessError(ptr noundef %25, i32 noundef -22, i32 noundef 936, ptr noundef @__func__.IDASetSensDQMethod, ptr noundef @.str, ptr noundef @.str.20)
  store i32 -22, ptr %4, align 4
  br label %33

26:                                               ; preds = %21
  %27 = load i32, ptr %6, align 4
  %28 = load ptr, ptr %8, align 8
  %29 = getelementptr inbounds %struct.IDAMemRec, ptr %28, i32 0, i32 32
  store i32 %27, ptr %29, align 8
  %30 = load double, ptr %7, align 8
  %31 = load ptr, ptr %8, align 8
  %32 = getelementptr inbounds %struct.IDAMemRec, ptr %31, i32 0, i32 33
  store double %30, ptr %32, align 8
  store i32 0, ptr %4, align 4
  br label %33

33:                                               ; preds = %26, %24, %19, %11
  %34 = load i32, ptr %4, align 4
  ret i32 %34
}