; Function Attrs: nounwind uwtable
define range(i32 -22, 1) i32 @IDASetSensDQMethod(ptr noundef %0, i32 noundef %1, double noundef %2) local_unnamed_addr #0 {
  %4 = icmp eq ptr %0, null
  br i1 %4, label %5, label %6

5:                                                ; preds = %3
  tail call void (ptr, i32, i32, ptr, ptr, ptr, ...) @IDAProcessError(ptr noundef null, i32 noundef -20, i32 noundef 921, ptr noundef nonnull @__func__.IDASetSensDQMethod, ptr noundef nonnull @.str, ptr noundef nonnull @.str.1) #9
  br label %15

6:                                                ; preds = %3
  %7 = add i32 %1, -3
  %or.cond = icmp ult i32 %7, -2
  br i1 %or.cond, label %8, label %9

8:                                                ; preds = %6
  tail call void (ptr, i32, i32, ptr, ptr, ptr, ...) @IDAProcessError(ptr noundef nonnull %0, i32 noundef -22, i32 noundef 929, ptr noundef nonnull @__func__.IDASetSensDQMethod, ptr noundef nonnull @.str, ptr noundef nonnull @.str.19) #9
  br label %15

9:                                                ; preds = %6
  %10 = fcmp olt double %2, 0.000000e+00
  br i1 %10, label %11, label %12

11:                                               ; preds = %9
  tail call void (ptr, i32, i32, ptr, ptr, ptr, ...) @IDAProcessError(ptr noundef nonnull %0, i32 noundef -22, i32 noundef 936, ptr noundef nonnull @__func__.IDASetSensDQMethod, ptr noundef nonnull @.str, ptr noundef nonnull @.str.20) #9
  br label %15

12:                                               ; preds = %9
  %13 = getelementptr inbounds nuw i8, ptr %0, i64 216
  store i32 %1, ptr %13, align 8
  %14 = getelementptr inbounds nuw i8, ptr %0, i64 224
  store double %2, ptr %14, align 8
  br label %15

15:                                               ; preds = %12, %11, %8, %5
  %.0 = phi i32 [ -20, %5 ], [ -22, %8 ], [ -22, %11 ], [ 0, %12 ]
  ret i32 %.0
}